; ModuleID = 'source-C-CXX/18/895.c'
source_filename = "source-C-CXX/18/895.c"
target datalayout = "e-m:e-p270:32:32-p271:32:32-p272:64:64-i64:64-f80:128-n8:16:32:64-S128"
target triple = "x86_64-pc-linux-gnu"

@.str = private unnamed_addr constant [3 x i8] c"%s\00", align 1
@.str.1 = private unnamed_addr constant [4 x i8] c" %s\00", align 1

; Function Attrs: nounwind sspstrong uwtable
define dso_local i32 @main() local_unnamed_addr #0 {
  %1 = alloca [100 x i8], align 16
  %2 = alloca [20 x [20 x i8]], align 16
  %3 = alloca [20 x i8], align 16
  %4 = alloca [20 x i8], align 16
  %5 = getelementptr inbounds [100 x i8], [100 x i8]* %1, i64 0, i64 0
  call void @llvm.lifetime.start.p0i8(i64 100, i8* nonnull %5) #6
  %6 = getelementptr inbounds [20 x [20 x i8]], [20 x [20 x i8]]* %2, i64 0, i64 0, i64 0
  call void @llvm.lifetime.start.p0i8(i64 400, i8* nonnull %6) #6
  %7 = getelementptr inbounds [20 x i8], [20 x i8]* %3, i64 0, i64 0
  call void @llvm.lifetime.start.p0i8(i64 20, i8* nonnull %7) #6
  %8 = getelementptr inbounds [20 x i8], [20 x i8]* %4, i64 0, i64 0
  call void @llvm.lifetime.start.p0i8(i64 20, i8* nonnull %8) #6
  %9 = call i32 (i8*, ...) bitcast (i32 (...)* @gets to i32 (i8*, ...)*)(i8* nonnull %5) #6
  %10 = call i32 (i8*, ...) @__isoc99_scanf(i8* getelementptr inbounds ([3 x i8], [3 x i8]* @.str, i64 0, i64 0), i8* nonnull %7)
  %11 = call i32 (i8*, ...) @__isoc99_scanf(i8* getelementptr inbounds ([3 x i8], [3 x i8]* @.str, i64 0, i64 0), i8* nonnull %8)
  %12 = call i64 @strlen(i8* noundef nonnull %5) #7
  br label %20

13:                                               ; preds = %38
  %14 = icmp slt i32 %39, 0
  br i1 %14, label %15, label %17

15:                                               ; preds = %13
  %16 = call i32 (i8*, ...) @printf(i8* nonnull dereferenceable(1) getelementptr inbounds ([3 x i8], [3 x i8]* @.str, i64 0, i64 0), i8* nonnull %6)
  br label %64

17:                                               ; preds = %13
  %18 = add nuw i32 %39, 1
  %19 = zext i32 %18 to i64
  br label %43

20:                                               ; preds = %0, %38
  %21 = phi i64 [ 0, %0 ], [ %41, %38 ]
  %22 = phi i32 [ 0, %0 ], [ %40, %38 ]
  %23 = phi i32 [ 0, %0 ], [ %39, %38 ]
  %24 = getelementptr inbounds [100 x i8], [100 x i8]* %1, i64 0, i64 %21
  %25 = load i8, i8* %24, align 1, !tbaa !5
  switch i8 %25, label %26 [
    i8 0, label %31
    i8 32, label %31
  ]

26:                                               ; preds = %20
  %27 = sext i32 %23 to i64
  %28 = sext i32 %22 to i64
  %29 = getelementptr inbounds [20 x [20 x i8]], [20 x [20 x i8]]* %2, i64 0, i64 %27, i64 %28
  store i8 %25, i8* %29, align 1, !tbaa !5
  %30 = add nsw i32 %22, 1
  br label %31

31:                                               ; preds = %20, %20, %26
  %32 = phi i32 [ %30, %26 ], [ %22, %20 ], [ %22, %20 ]
  switch i8 %25, label %38 [
    i8 0, label %33
    i8 32, label %33
  ]

33:                                               ; preds = %31, %31
  %34 = sext i32 %23 to i64
  %35 = sext i32 %32 to i64
  %36 = getelementptr inbounds [20 x [20 x i8]], [20 x [20 x i8]]* %2, i64 0, i64 %34, i64 %35
  store i8 0, i8* %36, align 1, !tbaa !5
  %37 = add nsw i32 %23, 1
  br label %38

38:                                               ; preds = %31, %33
  %39 = phi i32 [ %37, %33 ], [ %23, %31 ]
  %40 = phi i32 [ 0, %33 ], [ %32, %31 ]
  %41 = add nuw nsw i64 %21, 1
  %42 = icmp eq i64 %21, %12
  br i1 %42, label %13, label %20, !llvm.loop !8

43:                                               ; preds = %17, %50
  %44 = phi i64 [ 0, %17 ], [ %51, %50 ]
  %45 = getelementptr inbounds [20 x [20 x i8]], [20 x [20 x i8]]* %2, i64 0, i64 %44, i64 0
  %46 = call i32 @strcmp(i8* noundef nonnull %45, i8* noundef nonnull %7) #7
  %47 = icmp eq i32 %46, 0
  br i1 %47, label %48, label %50

48:                                               ; preds = %43
  %49 = call i8* @strcpy(i8* noundef nonnull %45, i8* noundef nonnull %8) #6
  br label %50

50:                                               ; preds = %43, %48
  %51 = add nuw nsw i64 %44, 1
  %52 = icmp eq i64 %51, %19
  br i1 %52, label %53, label %43, !llvm.loop !10

53:                                               ; preds = %50
  %54 = call i32 (i8*, ...) @printf(i8* nonnull dereferenceable(1) getelementptr inbounds ([3 x i8], [3 x i8]* @.str, i64 0, i64 0), i8* nonnull %6)
  %55 = icmp sgt i32 %39, 1
  br i1 %55, label %56, label %64

56:                                               ; preds = %53
  %57 = zext i32 %39 to i64
  br label %58

58:                                               ; preds = %56, %58
  %59 = phi i64 [ 1, %56 ], [ %62, %58 ]
  %60 = getelementptr inbounds [20 x [20 x i8]], [20 x [20 x i8]]* %2, i64 0, i64 %59, i64 0
  %61 = call i32 (i8*, ...) @printf(i8* nonnull dereferenceable(1) getelementptr inbounds ([4 x i8], [4 x i8]* @.str.1, i64 0, i64 0), i8* nonnull %60)
  %62 = add nuw nsw i64 %59, 1
  %63 = icmp eq i64 %62, %57
  br i1 %63, label %64, label %58, !llvm.loop !11

64:                                               ; preds = %58, %15, %53
  call void @llvm.lifetime.end.p0i8(i64 20, i8* nonnull %8) #6
  call void @llvm.lifetime.end.p0i8(i64 20, i8* nonnull %7) #6
  call void @llvm.lifetime.end.p0i8(i64 400, i8* nonnull %6) #6
  call void @llvm.lifetime.end.p0i8(i64 100, i8* nonnull %5) #6
  ret i32 0
}

; Function Attrs: argmemonly mustprogress nofree nosync nounwind willreturn
declare void @llvm.lifetime.start.p0i8(i64 immarg, i8* nocapture) #1

declare i32 @gets(...) local_unnamed_addr #2

; Function Attrs: nofree nounwind
declare noundef i32 @__isoc99_scanf(i8* nocapture noundef readonly, ...) local_unnamed_addr #3

; Function Attrs: argmemonly mustprogress nofree nounwind readonly willreturn
declare i64 @strlen(i8* nocapture) local_unnamed_addr #4

; Function Attrs: argmemonly mustprogress nofree nounwind readonly willreturn
declare i32 @strcmp(i8* nocapture, i8* nocapture) local_unnamed_addr #4

; Function Attrs: argmemonly mustprogress nofree nounwind willreturn
declare i8* @strcpy(i8* noalias returned writeonly, i8* noalias nocapture readonly) local_unnamed_addr #5

; Function Attrs: nofree nounwind
declare noundef i32 @printf(i8* nocapture noundef readonly, ...) local_unnamed_addr #3

; Function Attrs: argmemonly mustprogress nofree nosync nounwind willreturn
declare void @llvm.lifetime.end.p0i8(i64 immarg, i8* nocapture) #1


!llvm.module.flags = !{!0, !1, !2, !3}
!llvm.ident = !{!4}

!0 = !{i32 1, !"wchar_size", i32 4}
!1 = !{i32 7, !"PIC Level", i32 2}
!2 = !{i32 7, !"PIE Level", i32 2}
!3 = !{i32 7, !"uwtable", i32 1}
!4 = !{!"clang version 13.0.0"}
!5 = !{!6, !6, i64 0}
!6 = !{!"omnipotent char", !7, i64 0}
!7 = !{!"Simple C/C++ TBAA"}
!8 = distinct !{!8, !9}
!9 = !{!"llvm.loop.mustprogress"}
!10 = distinct !{!10, !9}
!11 = distinct !{!11, !9}
